; Function Attrs: nounwind uwtable
define hidden void @asn1_param_push_boolean(ptr noundef readonly captures(none) %0, i1 noundef zeroext %1) local_unnamed_addr #3 {
  %3 = getelementptr inbounds nuw i8, ptr %0, i64 32
  %4 = load ptr, ptr %3, align 8
  %.not.i = icmp eq ptr %4, null
  br i1 %.not.i, label %5, label %6

5:                                                ; preds = %2
  tail call void (ptr, ...) @proto_report_dissector_bug(ptr noundef nonnull @.str, ptr noundef nonnull @.str.1, i32 noundef 100, ptr noundef nonnull @.str.2) #11
  unreachable

6:                                                ; preds = %2
  %7 = getelementptr inbounds nuw i8, ptr %0, i64 16
  %8 = load ptr, ptr %7, align 8
  %9 = getelementptr inbounds nuw i8, ptr %8, i64 408
  %10 = load ptr, ptr %9, align 8
  %11 = tail call noalias ptr @wmem_alloc0(ptr noundef %10, i64 noundef 32) #10
  %12 = load ptr, ptr %3, align 8
  %13 = getelementptr inbounds nuw i8, ptr %12, i64 8
  br label %14

14:                                               ; preds = %14, %6
  %.0.i = phi ptr [ %13, %6 ], [ %16, %14 ]
  %15 = load ptr, ptr %.0.i, align 8
  %.not9.i = icmp eq ptr %15, null
  %16 = getelementptr inbounds nuw i8, ptr %15, i64 24
  br i1 %.not9.i, label %push_new_par.exit, label %14, !llvm.loop !6

push_new_par.exit:                                ; preds = %14
  %17 = zext i1 %1 to i8
  store ptr %11, ptr %.0.i, align 8
  %18 = getelementptr inbounds nuw i8, ptr %11, i64 8
  store i32 1, ptr %18, align 8
  %19 = getelementptr inbounds nuw i8, ptr %11, i64 16
  store i8 %17, ptr %19, align 8
  ret void
}